target datalayout = "e-m:e-p270:32:32-p271:32:32-p272:64:64-i64:64-i128:128-f80:128-n8:16:32:64-S128"
target triple = "x86_64-pc-linux-gnu"

%"struct.vcpkg::MetadataMessage" = type { i32, %union.anon }
%union.anon = type { ptr }
%"struct.vcpkg::LearnWebsiteLinkLiteral" = type { ptr }
%"struct.vcpkg::CommandOptionsStructure" = type { %"struct.vcpkg::Span", %"struct.vcpkg::Span.0", %"struct.vcpkg::Span.1" }
%"struct.vcpkg::Span" = type { ptr, i64 }
%"struct.vcpkg::Span.0" = type { ptr, i64 }
%"struct.vcpkg::Span.1" = type { ptr, i64 }
%"struct.vcpkg::LineInfo" = type { i32, ptr }
%"struct.vcpkg::Span.2" = type { ptr, i64 }
%"struct.std::_Vector_base" = type { %"struct.std::_Vector_base<std::__cxx11::basic_string<char>, std::allocator<std::__cxx11::basic_string<char>>>::_Vector_impl" }
%"struct.std::_Vector_base<std::__cxx11::basic_string<char>, std::allocator<std::__cxx11::basic_string<char>>>::_Vector_impl" = type { %"struct.std::_Vector_base<std::__cxx11::basic_string<char>, std::allocator<std::__cxx11::basic_string<char>>>::_Vector_impl_data" }
%"struct.std::_Vector_base<std::__cxx11::basic_string<char>, std::allocator<std::__cxx11::basic_string<char>>>::_Vector_impl_data" = type { ptr, ptr, ptr }

$_ZN5vcpkg4SpanIKNSt7__cxx1112basic_stringIcSt11char_traitsIcESaIcEEEEC2IRKSt6vectorIS6_SaIS6_EEPS7_vEEOT_ = comdat any

$_ZNKSt6vectorINSt7__cxx1112basic_stringIcSt11char_traitsIcESaIcEEESaIS5_EE4dataEv = comdat any

$_ZNKSt6vectorINSt7__cxx1112basic_stringIcSt11char_traitsIcESaIcEEESaIS5_EE4sizeEv = comdat any

$_ZN5vcpkg4SpanIKNSt7__cxx1112basic_stringIcSt11char_traitsIcESaIcEEEEC2EPS7_m = comdat any

$_ZNKSt6vectorINSt7__cxx1112basic_stringIcSt11char_traitsIcESaIcEEESaIS5_EE11_M_data_ptrIS5_EEPT_SA_ = comdat any

@.str = private unnamed_addr constant [5 x i8] c"z-ce\00", align 1
@_ZN5vcpkg18CommandZCEMetadataE = dso_local constant { { ptr, i64 }, %"struct.vcpkg::MetadataMessage", [4 x %"struct.vcpkg::MetadataMessage"], %"struct.vcpkg::LearnWebsiteLinkLiteral", i32, i64, i64, %"struct.vcpkg::CommandOptionsStructure", ptr } { { ptr, i64 } { ptr @.str, i64 4 }, %"struct.vcpkg::MetadataMessage" zeroinitializer, [4 x %"struct.vcpkg::MetadataMessage"] zeroinitializer, %"struct.vcpkg::LearnWebsiteLinkLiteral" zeroinitializer, i32 2, i64 0, i64 -1, %"struct.vcpkg::CommandOptionsStructure" zeroinitializer, ptr null }, align 8
@.str.1 = private unnamed_addr constant [122 x i8] c"generated/home/dtcxzyw/WorkSpace/Projects/compilers/llvm-opt-benchmark/bench/vcpkg/vcpkg-tool/src/vcpkg/commands.z-ce.cpp\00", align 1

; Function Attrs: mustprogress uwtable
define dso_local void @_ZN5vcpkg21command_z_ce_and_exitERKNS_17VcpkgCmdArgumentsERKNS_10VcpkgPathsE(ptr noundef nonnull align 8 dereferenceable(1840) %0, ptr noundef nonnull align 1 %1) #0 {
  %3 = alloca ptr, align 8
  %4 = alloca ptr, align 8
  %5 = alloca %"struct.vcpkg::LineInfo", align 8
  %6 = alloca %"struct.vcpkg::Span.2", align 8
  store ptr %0, ptr %3, align 8, !tbaa !4
  store ptr %1, ptr %4, align 8, !tbaa !9
  call void @llvm.lifetime.start.p0(i64 16, ptr %5) #6
  %7 = getelementptr inbounds nuw %"struct.vcpkg::LineInfo", ptr %5, i32 0, i32 0
  store i32 23, ptr %7, align 8, !tbaa !11
  %8 = getelementptr inbounds nuw %"struct.vcpkg::LineInfo", ptr %5, i32 0, i32 1
  store ptr @.str.1, ptr %8, align 8, !tbaa !15
  %9 = load ptr, ptr %4, align 8, !tbaa !9
  %10 = load ptr, ptr %3, align 8, !tbaa !4
  %11 = call noundef nonnull align 8 dereferenceable(24) ptr @_ZNK5vcpkg17VcpkgCmdArguments25get_forwardable_argumentsB5cxx11Ev(ptr noundef nonnull align 8 dereferenceable(1840) %10) #6
  call void @_ZN5vcpkg4SpanIKNSt7__cxx1112basic_stringIcSt11char_traitsIcESaIcEEEEC2IRKSt6vectorIS6_SaIS6_EEPS7_vEEOT_(ptr noundef nonnull align 8 dereferenceable(16) %6, ptr noundef nonnull align 8 dereferenceable(24) %11) #6
  %12 = getelementptr inbounds nuw { ptr, i64 }, ptr %6, i32 0, i32 0
  %13 = load ptr, ptr %12, align 8
  %14 = getelementptr inbounds nuw { ptr, i64 }, ptr %6, i32 0, i32 1
  %15 = load i64, ptr %14, align 8
  %16 = call noundef i32 @_ZN5vcpkg33run_configure_environment_commandERKNS_10VcpkgPathsENS_4SpanIKNSt7__cxx1112basic_stringIcSt11char_traitsIcESaIcEEEEE(ptr noundef nonnull align 1 %9, ptr %13, i64 %15)
  call void @_ZN5vcpkg6Checks14exit_with_codeERKNS_8LineInfoEi(ptr noundef nonnull align 8 dereferenceable(16) %5, i32 noundef %16) #7
  unreachable
}

; Function Attrs: noreturn
declare void @_ZN5vcpkg6Checks14exit_with_codeERKNS_8LineInfoEi(ptr noundef nonnull align 8 dereferenceable(16), i32 noundef) #1

; Function Attrs: nocallback nofree nosync nounwind willreturn memory(argmem: readwrite)
declare void @llvm.lifetime.start.p0(i64 immarg, ptr captures(none)) #2

declare noundef i32 @_ZN5vcpkg33run_configure_environment_commandERKNS_10VcpkgPathsENS_4SpanIKNSt7__cxx1112basic_stringIcSt11char_traitsIcESaIcEEEEE(ptr noundef nonnull align 1, ptr, i64) #3

; Function Attrs: nounwind
declare noundef nonnull align 8 dereferenceable(24) ptr @_ZNK5vcpkg17VcpkgCmdArguments25get_forwardable_argumentsB5cxx11Ev(ptr noundef nonnull align 8 dereferenceable(1840)) #4

; Function Attrs: mustprogress nounwind uwtable
define linkonce_odr dso_local void @_ZN5vcpkg4SpanIKNSt7__cxx1112basic_stringIcSt11char_traitsIcESaIcEEEEC2IRKSt6vectorIS6_SaIS6_EEPS7_vEEOT_(ptr noundef nonnull align 8 dereferenceable(16) %0, ptr noundef nonnull align 8 dereferenceable(24) %1) unnamed_addr #5 comdat align 2 {
  %3 = alloca ptr, align 8
  %4 = alloca ptr, align 8
  store ptr %0, ptr %3, align 8, !tbaa !16
  store ptr %1, ptr %4, align 8, !tbaa !18
  %5 = load ptr, ptr %3, align 8
  %6 = load ptr, ptr %4, align 8, !tbaa !18
  %7 = call noundef ptr @_ZNKSt6vectorINSt7__cxx1112basic_stringIcSt11char_traitsIcESaIcEEESaIS5_EE4dataEv(ptr noundef nonnull align 8 dereferenceable(24) %6) #6
  %8 = load ptr, ptr %4, align 8, !tbaa !18
  %9 = call noundef i64 @_ZNKSt6vectorINSt7__cxx1112basic_stringIcSt11char_traitsIcESaIcEEESaIS5_EE4sizeEv(ptr noundef nonnull align 8 dereferenceable(24) %8) #6
  call void @_ZN5vcpkg4SpanIKNSt7__cxx1112basic_stringIcSt11char_traitsIcESaIcEEEEC2EPS7_m(ptr noundef nonnull align 8 dereferenceable(16) %5, ptr noundef %7, i64 noundef %9) #6
  ret void
}

; Function Attrs: mustprogress nounwind uwtable
define linkonce_odr dso_local noundef ptr @_ZNKSt6vectorINSt7__cxx1112basic_stringIcSt11char_traitsIcESaIcEEESaIS5_EE4dataEv(ptr noundef nonnull align 8 dereferenceable(24) %0) #5 comdat align 2 {
  %2 = alloca ptr, align 8
  store ptr %0, ptr %2, align 8, !tbaa !18
  %3 = load ptr, ptr %2, align 8
  %4 = getelementptr inbounds nuw %"struct.std::_Vector_base", ptr %3, i32 0, i32 0
  %5 = getelementptr inbounds nuw %"struct.std::_Vector_base<std::__cxx11::basic_string<char>, std::allocator<std::__cxx11::basic_string<char>>>::_Vector_impl_data", ptr %4, i32 0, i32 0
  %6 = load ptr, ptr %5, align 8, !tbaa !20
  %7 = call noundef ptr @_ZNKSt6vectorINSt7__cxx1112basic_stringIcSt11char_traitsIcESaIcEEESaIS5_EE11_M_data_ptrIS5_EEPT_SA_(ptr noundef nonnull align 8 dereferenceable(24) %3, ptr noundef %6) #6
  ret ptr %7
}

; Function Attrs: mustprogress nounwind uwtable
define linkonce_odr dso_local noundef i64 @_ZNKSt6vectorINSt7__cxx1112basic_stringIcSt11char_traitsIcESaIcEEESaIS5_EE4sizeEv(ptr noundef nonnull align 8 dereferenceable(24) %0) #5 comdat align 2 {
  %2 = alloca ptr, align 8
  store ptr %0, ptr %2, align 8, !tbaa !18
  %3 = load ptr, ptr %2, align 8
  %4 = getelementptr inbounds nuw %"struct.std::_Vector_base", ptr %3, i32 0, i32 0
  %5 = getelementptr inbounds nuw %"struct.std::_Vector_base<std::__cxx11::basic_string<char>, std::allocator<std::__cxx11::basic_string<char>>>::_Vector_impl_data", ptr %4, i32 0, i32 1
  %6 = load ptr, ptr %5, align 8, !tbaa !23
  %7 = getelementptr inbounds nuw %"struct.std::_Vector_base", ptr %3, i32 0, i32 0
  %8 = getelementptr inbounds nuw %"struct.std::_Vector_base<std::__cxx11::basic_string<char>, std::allocator<std::__cxx11::basic_string<char>>>::_Vector_impl_data", ptr %7, i32 0, i32 0
  %9 = load ptr, ptr %8, align 8, !tbaa !20
  %10 = ptrtoint ptr %6 to i64
  %11 = ptrtoint ptr %9 to i64
  %12 = sub i64 %10, %11
  %13 = sdiv exact i64 %12, 32
  ret i64 %13
}

; Function Attrs: mustprogress nounwind uwtable
define linkonce_odr dso_local void @_ZN5vcpkg4SpanIKNSt7__cxx1112basic_stringIcSt11char_traitsIcESaIcEEEEC2EPS7_m(ptr noundef nonnull align 8 dereferenceable(16) %0, ptr noundef %1, i64 noundef %2) unnamed_addr #5 comdat align 2 {
  %4 = alloca ptr, align 8
  %5 = alloca ptr, align 8
  %6 = alloca i64, align 8
  store ptr %0, ptr %4, align 8, !tbaa !16
  store ptr %1, ptr %5, align 8, !tbaa !24
  store i64 %2, ptr %6, align 8, !tbaa !25
  %7 = load ptr, ptr %4, align 8
  %8 = getelementptr inbounds nuw %"struct.vcpkg::Span.2", ptr %7, i32 0, i32 0
  %9 = load ptr, ptr %5, align 8, !tbaa !24
  store ptr %9, ptr %8, align 8, !tbaa !27
  %10 = getelementptr inbounds nuw %"struct.vcpkg::Span.2", ptr %7, i32 0, i32 1
  %11 = load i64, ptr %6, align 8, !tbaa !25
  store i64 %11, ptr %10, align 8, !tbaa !29
  ret void
}

; Function Attrs: mustprogress nounwind uwtable
define linkonce_odr dso_local noundef ptr @_ZNKSt6vectorINSt7__cxx1112basic_stringIcSt11char_traitsIcESaIcEEESaIS5_EE11_M_data_ptrIS5_EEPT_SA_(ptr noundef nonnull align 8 dereferenceable(24) %0, ptr noundef %1) #5 comdat align 2 {
  %3 = alloca ptr, align 8
  %4 = alloca ptr, align 8
  store ptr %0, ptr %3, align 8, !tbaa !18
  store ptr %1, ptr %4, align 8, !tbaa !24
  %5 = load ptr, ptr %4, align 8, !tbaa !24
  ret ptr %5
}


!llvm.module.flags = !{!0, !1, !2, !3}

!0 = !{i32 1, !"wchar_size", i32 4}
!1 = !{i32 8, !"PIC Level", i32 2}
!2 = !{i32 7, !"PIE Level", i32 2}
!3 = !{i32 7, !"uwtable", i32 2}
!4 = !{!5, !5, i64 0}
!5 = !{!"p1 _ZTSN5vcpkg17VcpkgCmdArgumentsE", !6, i64 0}
!6 = !{!"any pointer", !7, i64 0}
!7 = !{!"omnipotent char", !8, i64 0}
!8 = !{!"Simple C++ TBAA"}
!9 = !{!10, !10, i64 0}
!10 = !{!"p1 _ZTSN5vcpkg10VcpkgPathsE", !6, i64 0}
!11 = !{!12, !13, i64 0}
!12 = !{!"_ZTSN5vcpkg8LineInfoE", !13, i64 0, !14, i64 8}
!13 = !{!"int", !7, i64 0}
!14 = !{!"p1 omnipotent char", !6, i64 0}
!15 = !{!12, !14, i64 8}
!16 = !{!17, !17, i64 0}
!17 = !{!"p1 _ZTSN5vcpkg4SpanIKNSt7__cxx1112basic_stringIcSt11char_traitsIcESaIcEEEEE", !6, i64 0}
!18 = !{!19, !19, i64 0}
!19 = !{!"p1 _ZTSSt6vectorINSt7__cxx1112basic_stringIcSt11char_traitsIcESaIcEEESaIS5_EE", !6, i64 0}
!20 = !{!21, !22, i64 0}
!21 = !{!"_ZTSNSt12_Vector_baseINSt7__cxx1112basic_stringIcSt11char_traitsIcESaIcEEESaIS5_EE17_Vector_impl_dataE", !22, i64 0, !22, i64 8, !22, i64 16}
!22 = !{!"p1 _ZTSNSt7__cxx1112basic_stringIcSt11char_traitsIcESaIcEEE", !6, i64 0}
!23 = !{!21, !22, i64 8}
!24 = !{!22, !22, i64 0}
!25 = !{!26, !26, i64 0}
!26 = !{!"long", !7, i64 0}
!27 = !{!28, !22, i64 0}
!28 = !{!"_ZTSN5vcpkg4SpanIKNSt7__cxx1112basic_stringIcSt11char_traitsIcESaIcEEEEE", !22, i64 0, !26, i64 8}
!29 = !{!28, !26, i64 8}
