; ModuleID = 'bench/vcpkg/original/commands.z-ce.ll'
source_filename = "bench/vcpkg/original/commands.z-ce.ll"
target datalayout = "e-m:e-p270:32:32-p271:32:32-p272:64:64-i64:64-i128:128-f80:128-n8:16:32:64-S128"
target triple = "x86_64-pc-linux-gnu"

%"struct.vcpkg::MetadataMessage" = type { i32, %union.anon }
%union.anon = type { ptr }
%"struct.vcpkg::LearnWebsiteLinkLiteral" = type { ptr }
%"struct.vcpkg::CommandOptionsStructure" = type { %"struct.vcpkg::Span", %"struct.vcpkg::Span.0", %"struct.vcpkg::Span.1" }
%"struct.vcpkg::Span" = type { ptr, i64 }
%"struct.vcpkg::Span.0" = type { ptr, i64 }
%"struct.vcpkg::Span.1" = type { ptr, i64 }
%"struct.vcpkg::LineInfo" = type { i32, ptr }

@.str = private unnamed_addr constant [5 x i8] c"z-ce\00", align 1
@_ZN5vcpkg18CommandZCEMetadataE = dso_local local_unnamed_addr constant { { ptr, i64 }, %"struct.vcpkg::MetadataMessage", [4 x %"struct.vcpkg::MetadataMessage"], %"struct.vcpkg::LearnWebsiteLinkLiteral", i32, i64, i64, %"struct.vcpkg::CommandOptionsStructure", ptr } { { ptr, i64 } { ptr @.str, i64 4 }, %"struct.vcpkg::MetadataMessage" zeroinitializer, [4 x %"struct.vcpkg::MetadataMessage"] zeroinitializer, %"struct.vcpkg::LearnWebsiteLinkLiteral" zeroinitializer, i32 2, i64 0, i64 -1, %"struct.vcpkg::CommandOptionsStructure" zeroinitializer, ptr null }, align 8
@.str.1 = private unnamed_addr constant [122 x i8] c"generated/home/dtcxzyw/WorkSpace/Projects/compilers/llvm-opt-benchmark/bench/vcpkg/vcpkg-tool/src/vcpkg/commands.z-ce.cpp\00", align 1

; Function Attrs: mustprogress noreturn uwtable
define dso_local void @_ZN5vcpkg21command_z_ce_and_exitERKNS_17VcpkgCmdArgumentsERKNS_10VcpkgPathsE(ptr noundef nonnull align 8 dereferenceable(1840) %0, ptr noundef nonnull align 1 %1) local_unnamed_addr #0 {
  %3 = alloca %"struct.vcpkg::LineInfo", align 8
  call void @llvm.lifetime.start.p0(i64 16, ptr nonnull %3) #5
  store i32 23, ptr %3, align 8, !tbaa !4
  %4 = getelementptr inbounds nuw i8, ptr %3, i64 8
  store ptr @.str.1, ptr %4, align 8, !tbaa !11
  %5 = tail call noundef nonnull align 8 dereferenceable(24) ptr @_ZNK5vcpkg17VcpkgCmdArguments25get_forwardable_argumentsB5cxx11Ev(ptr noundef nonnull align 8 dereferenceable(1840) %0) #5
  %6 = load ptr, ptr %5, align 8, !tbaa !12
  %7 = getelementptr inbounds nuw i8, ptr %5, i64 8
  %8 = load ptr, ptr %7, align 8, !tbaa !15
  %9 = ptrtoint ptr %8 to i64
  %10 = ptrtoint ptr %6 to i64
  %11 = sub i64 %9, %10
  %12 = ashr exact i64 %11, 5
  %13 = tail call noundef i32 @_ZN5vcpkg33run_configure_environment_commandERKNS_10VcpkgPathsENS_4SpanIKNSt7__cxx1112basic_stringIcSt11char_traitsIcESaIcEEEEE(ptr noundef nonnull align 1 %1, ptr %6, i64 %12)
  call void @_ZN5vcpkg6Checks14exit_with_codeERKNS_8LineInfoEi(ptr noundef nonnull align 8 dereferenceable(16) %3, i32 noundef %13) #6
  unreachable
}

; Function Attrs: noreturn
declare void @_ZN5vcpkg6Checks14exit_with_codeERKNS_8LineInfoEi(ptr noundef nonnull align 8 dereferenceable(16), i32 noundef) local_unnamed_addr #1

; Function Attrs: mustprogress nocallback nofree nosync nounwind willreturn memory(argmem: readwrite)
declare void @llvm.lifetime.start.p0(i64 immarg, ptr captures(none)) #2

declare noundef i32 @_ZN5vcpkg33run_configure_environment_commandERKNS_10VcpkgPathsENS_4SpanIKNSt7__cxx1112basic_stringIcSt11char_traitsIcESaIcEEEEE(ptr noundef nonnull align 1, ptr, i64) local_unnamed_addr #3

; Function Attrs: nounwind
declare noundef nonnull align 8 dereferenceable(24) ptr @_ZNK5vcpkg17VcpkgCmdArguments25get_forwardable_argumentsB5cxx11Ev(ptr noundef nonnull align 8 dereferenceable(1840)) local_unnamed_addr #4


!llvm.module.flags = !{!0, !1, !2, !3}

!0 = !{i32 1, !"wchar_size", i32 4}
!1 = !{i32 8, !"PIC Level", i32 2}
!2 = !{i32 7, !"PIE Level", i32 2}
!3 = !{i32 7, !"uwtable", i32 2}
!4 = !{!5, !6, i64 0}
!5 = !{!"_ZTSN5vcpkg8LineInfoE", !6, i64 0, !9, i64 8}
!6 = !{!"int", !7, i64 0}
!7 = !{!"omnipotent char", !8, i64 0}
!8 = !{!"Simple C++ TBAA"}
!9 = !{!"p1 omnipotent char", !10, i64 0}
!10 = !{!"any pointer", !7, i64 0}
!11 = !{!5, !9, i64 8}
!12 = !{!13, !14, i64 0}
!13 = !{!"_ZTSNSt12_Vector_baseINSt7__cxx1112basic_stringIcSt11char_traitsIcESaIcEEESaIS5_EE17_Vector_impl_dataE", !14, i64 0, !14, i64 8, !14, i64 16}
!14 = !{!"p1 _ZTSNSt7__cxx1112basic_stringIcSt11char_traitsIcESaIcEEE", !10, i64 0}
!15 = !{!13, !14, i64 8}
